Certificate:
    Data:
        Version: 1 (0x0)
        Serial Number: 14513804194619734986 (0xc96b64047fe23bca)
    Signature Algorithm: sha1WithRSAEncryption
        Issuer: C=IS, L=Reykjavik, O=Reykjavik University, CN=Jon Freysteinn
        Validity
            Not Before: Oct 29 17:35:45 2015 GMT
            Not After : Mar 12 17:35:45 2017 GMT
        Subject: C=IS, L=Reykjavik, O=Reykjavik University, CN=Jon Freysteinn
        Subject Public Key Info:
            Public Key Algorithm: rsaEncryption
                Public-Key: (2048 bit)
                Modulus:
                    00:d5:fa:a2:87:6c:9c:17:88:cc:ac:7c:55:d4:43:
                    07:13:b4:2c:b4:ee:b5:90:69:5e:2d:ec:de:a7:27:
                    86:a8:80:6b:01:fe:7b:f5:d7:e0:2a:d6:c8:4a:89:
                    21:41:a5:2d:3d:78:ad:9c:36:9f:04:fa:9f:0d:1e:
                    7f:88:52:d3:cd:36:a5:78:59:fd:6c:de:c9:29:46:
                    a2:96:54:6f:80:17:45:63:c3:f0:b1:6c:07:ba:ff:
                    77:7d:8e:4b:8d:19:24:89:b9:8f:8d:a3:9e:e4:f1:
                    c4:e7:ca:90:b6:61:c3:a3:74:88:82:54:99:3f:cc:
                    63:5a:39:f8:21:15:b7:cc:6a:c1:12:52:ab:c5:22:
                    84:9d:12:14:61:98:3d:92:e6:4c:d1:4f:c2:8e:54:
                    78:32:44:36:df:75:fe:b8:be:9f:63:5f:d0:f1:82:
                    1e:ea:20:58:36:72:c0:f0:8b:58:95:13:a9:ed:a8:
                    96:03:f9:33:41:0e:a3:23:a9:b1:6d:c7:c0:b2:8b:
                    0e:09:ae:95:f8:61:c9:10:8d:41:ec:44:5a:41:53:
                    ea:c2:2f:1b:5d:76:03:fa:49:ce:be:01:c9:d0:c8:
                    72:56:61:23:16:5d:79:67:5b:33:10:dd:22:0e:d2:
                    b1:83:41:7f:3a:8d:ce:a8:76:be:e9:a4:36:a2:66:
                    3f:dd
                Exponent: 65537 (0x10001)
    Signature Algorithm: sha1WithRSAEncryption
         03:0c:ec:1e:7b:bf:54:b4:18:76:f5:6f:69:d2:fb:71:ae:8d:
         31:6f:94:33:4c:02:c9:d0:7e:0c:3d:26:74:5d:c2:4e:bc:5d:
         18:bc:b0:da:d3:a8:b7:e1:92:51:18:8c:d8:cb:b2:08:1f:dd:
         0d:e7:42:98:ac:92:34:b2:f5:c6:4e:a7:38:70:4c:30:d6:f3:
         83:33:78:f5:95:0b:39:8d:6c:42:4b:ba:fb:e4:24:5b:b0:1e:
         33:67:fc:4b:10:af:b5:e4:cd:dc:dc:d7:ba:af:82:c3:ba:a2:
         cb:6a:58:d8:52:99:8b:61:6d:06:9d:5c:5b:4f:35:96:73:7a:
         7c:8d:25:1a:11:cc:9c:df:97:8f:0f:90:6f:5a:17:2b:3a:fb:
         b4:c5:ca:8f:d4:6e:43:e0:8c:4d:8d:1b:c3:ee:9f:45:c9:78:
         b3:d6:bb:1c:19:4c:3e:be:8c:5d:bc:9b:37:6f:ff:8d:a1:bf:
         f9:a4:51:48:8a:f0:1e:96:37:0d:ee:33:fa:17:f8:0f:a3:24:
         51:3f:c1:b7:78:04:d3:c0:c0:3b:86:07:7b:61:c7:6b:a2:58:
         28:90:49:29:5d:2b:8d:dd:f5:d8:de:7e:26:a8:c8:52:40:d4:
         dc:b8:4a:f4:06:a3:c5:f5:98:a2:b9:f3:3b:bf:a7:ae:a3:15:
         f8:b2:4c:53
-----BEGIN CERTIFICATE-----
MIIDLjCCAhYCCQDJa2QEf+I7yjANBgkqhkiG9w0BAQUFADBZMQswCQYDVQQGEwJJ
UzESMBAGA1UEBwwJUmV5a2phdmlrMR0wGwYDVQQKDBRSZXlramF2aWsgVW5pdmVy
c2l0eTEXMBUGA1UEAwwOSm9uIEZyZXlzdGVpbm4wHhcNMTUxMDI5MTczNTQ1WhcN
MTcwMzEyMTczNTQ1WjBZMQswCQYDVQQGEwJJUzESMBAGA1UEBwwJUmV5a2phdmlr
MR0wGwYDVQQKDBRSZXlramF2aWsgVW5pdmVyc2l0eTEXMBUGA1UEAwwOSm9uIEZy
ZXlzdGVpbm4wggEiMA0GCSqGSIb3DQEBAQUAA4IBDwAwggEKAoIBAQDV+qKHbJwX
iMysfFXUQwcTtCy07rWQaV4t7N6nJ4aogGsB/nv11+Aq1shKiSFBpS09eK2cNp8E
+p8NHn+IUtPNNqV4Wf1s3skpRqKWVG+AF0Vjw/CxbAe6/3d9jkuNGSSJuY+No57k
8cTnypC2YcOjdIiCVJk/zGNaOfghFbfMasESUqvFIoSdEhRhmD2S5kzRT8KOVHgy
RDbfdf64vp9jX9Dxgh7qIFg2csDwi1iVE6ntqJYD+TNBDqMjqbFtx8Cyiw4JrpX4
YckQjUHsRFpBU+rCLxtddgP6Sc6+AcnQyHJWYSMWXXlnWzMQ3SIO0rGDQX86jc6o
dr7ppDaiZj/dAgMBAAEwDQYJKoZIhvcNAQEFBQADggEBAAMM7B57v1S0GHb1b2nS
+3GujTFvlDNMAsnQfgw9JnRdwk68XRi8sNrTqLfhklEYjNjLsggf3Q3nQpiskjSy
9cZOpzhwTDDW84MzePWVCzmNbEJLuvvkJFuwHjNn/EsQr7Xkzdzc17qvgsO6ostq
WNhSmYthbQadXFtPNZZzenyNJRoRzJzfl48PkG9aFys6+7TFyo/UbkPgjE2NG8Pu
n0XJeLPWuxwZTD6+jF28mzdv/42hv/mkUUiK8B6WNw3uM/oX+A+jJFE/wbd4BNPA
wDuGB3thx2uiWCiQSSldK43d9djefiaoyFJA1Ny4SvQGo8X1mKK58zu/p66jFfiy
TFM=
-----END CERTIFICATE-----
